Tue Jun 03 17:54:12 2025
-------------------------
CAS V2.15.1-rc1 - (C) Copyright 2000-2012 CHIPMAST TECHNOLOGY CO. LTD.
Main file   : main.asm
Current file: main.asm

     1                        ;********************************************************************************
     2                        ; PROJECT	: Calendar(MC830B)							*
     3                        ; AUTHOR	: WBN										*
     4                        ; REVISION	: 13/9/2024  V1.0	First issue				*
     5                        ; High OSC CLK  : Internal RC 4.4MHz	Fcpu = Fosc/2				*
     6                        ; Function	: 								*
     7                        ;********************************************************************************
     8                        	.CHIP	W65C02S      ;cpu的选型
     9                        	;.INCLIST	ON       ;宏定义和文件
    10                        	.MACLIST	ON
    11                        ;***************************************
    12                        CODE_BEG	EQU		C000H ;C000H(4K*4次)        ;起始地址
    13                        ;***************************************
    14                        
    15                        PROG	SECTION	OFFSET	CODE_BEG                ;定义代码段的偏移量从CODE_BEG开始，用于组织程序代码。
    16                        
    17                        ;***************************************
    18                        ;*	header include                               ;头文件
    19                        ;***************************************
    20                        	.include	50P016.h
     1                        .page0
     2                        .org 	00H
     3                        PA		EQU	01H
     4                        P_PA		EQU	PA
     5                        PAWAKE	EQU	02H
     6                        P_PA_WAKE	EQU	PAWAKE
     7                        PADIR	EQU	04H
     8                        P_PA_DIR	EQU	PADIR
     9                        P_PA_IO		EQU	PADIR
    10                        PB		EQU	05H
    11                        P_PB		EQU	PB
    12                        PBTYPE	EQU	06H
    13                        P_PB_TYPE	EQU	PBTYPE
    14                        PC		EQU	07H
    15                        P_PC 		EQU PC
    16                        PCDIR	EQU	08H
    17                        P_PC_IO 	EQU	PCDIR
    18                        P_PC_DIR	EQU	PCDIR
    19                        PCSEG	EQU	09H	;
    20                        P_PCSEG		EQU	PCSEG
    21                        PD		EQU	0AH
    22                        PDDIR	EQU 0BH
    23                        PADF0	EQU	0CH	;
    24                        P_PADF0		EQU	PADF0
    25                        PADF1	EQU	0DH	;
    26                        IER		EQU	0EH
    27                        P_IER 	EQU IER
    28                        IFR		EQU	0FH
    29                        P_IFR 		EQU IFR
    30                        TMR0	EQU	10H	;
    31                        P_TMR0		EQU	TMR0
    32                        TMR1	EQU	12H	;
    33                        P_TMR1  	EQU	TMR1
    34                        TMR2	EQU	14H	;
    35                        TMRC	EQU	16H	;
    36                        P_TMRCTRL 	EQU TMRC
    37                        P_TMRC		EQU	TMRC
    38                        bTMR0ON    EQU	   0
    39                        bTMR1ON    EQU	   1
    40                        bLCDON	   EQU	   4
    41                        bAUDON	   EQU	   7
    42                        
    43                        TMCLK	EQU	17H	;
    44                        P_TMRCLK 	EQU TMCLK
    45                        P_TMCLK 	EQU TMCLK
    46                        DIVC	EQU	18H	;
    47                        P_DIVC		EQU	DIVC
    48                        LCDCTRL	EQU	19H	;
    49                        LCDCOM	EQU	1AH	;
    50                        P_LCD_COM	EQU	LCDCOM
    51                        WDTC	EQU	1CH	;
    52                        SYSCLK	EQU	1DH
    53                        P_SYSCLK	EQU	SYSCLK
    54                        sysclk		equ SYSCLK
    55                        HALT	EQU	1EH	;
    56                        P_HALT		EQU	HALT
    57                        AUD0	EQU	1FH	;
    58                        P_AUD		EQU	AUD0
    59                        
    60                        AUDCR	EQU	20H	;
    61                        P_AUD_CTL	EQU	AUDCR
    62                        FRAME	EQU	21H	;
    63                        ;BANK	EQU	23H	;
    64                        MF		EQU	2FH
    65                        
    66                        SPCR	EQU	32H
    67                        SPSR	EQU	33H
    68                        SPDR	EQU	34H
    69                        PAK		EQU	3AH
    70                        PBK		EQU	3BH
    71                        PCK		EQU	3CH
    72                        LVC		EQU	3DH
    73                        FUSE	EQU	3EH
    74                        
    75                        PDSEG	EQU	5CH
    76                        RFCC0	EQU	5DH
    77                        RFCC1	EQU	5EH
    78                        
    79                        BIT0    EQU 00000001B
    80                        BIT1    EQU 00000010B
    81                        BIT2    EQU 00000100B
    82                        BIT3    EQU 00001000B
    83                        BIT4    EQU 00010000B
    84                        BIT5    EQU 00100000B
    85                        BIT6    EQU 01000000B
    86                        BIT7    EQU 10000000B
    87                        
    88                        BIT0_    EQU 11111110B
    89                        BIT1_    EQU 11111101B
    90                        BIT2_    EQU 11111011B
    91                        BIT3_    EQU 11110111B
    92                        BIT4_    EQU 11101111B
    93                        BIT5_    EQU 11011111B
    94                        BIT6_    EQU 10111111B
    95                        BIT7_    EQU 01111111B
    96                        .ends
    96                        
    21                        	.INCLUDE	RAM.INC
     1                        .Kdata
     2                        ;***************************************
     3                        ; RAM Address
     4                        ;***************************************
     5                        RamStarAddr			EQU		1800H   ;RAM的开始地址
     6                        LCD_RamAddr			EQU		RamStarAddr     ;LCD RAM的地址
     7                        Time_Addr			EQU		RamStarAddr+Time_Str_Addr-Page0RamStarAddr
     8                        RAM					EQU		80H
     9                        ;***************************************
    10                        ;Time_Addr		EUQ		B0H
    11                        ;***************************************
    12                        .PAGE0     ;page 0的内存布局
    13                        ;***************************************
    14                        ;	ORG	0098H
    15                        ;---------------------------------------------------------------------
    16                        	ORG	0080H
    17                        
    18                        Page0RamStarAddr	EQU		$
    19 00:0080: xx xx xx xx   LCDRAM					DS	6*5
    19 00:0080: xx xx xx xx   
    19 00:0080: xx xx xx xx   
    20                        D_LCD_RAM				EQU	6*5
    21                        
    22 00:009E: xx            R_Int_Backup			DS	1
    23                        
    24 00:009F: xx            Sys_Flag_A				DS	1		;0	系统状态
    25                        ; bit0 	=132hz标志
    26                        ; bit1	=1按键首次扫描标志
    27                        ; bit2 	=0按键循环扫描标志
    28                        ; bit3	=0设置模式
    29                        ; bit4 	=0快加设置(此工程无用)
    30                        ; bit5 	=0无效键设置
    31                        ; bit6	=01按键长按
    32                        ; bit7	=0按键按下返回时间模式的标志
    33 00:00A0: xx            Sys_Flag_B				DS	1	;时钟模式的系统状态
    34                        ; bit0 	=半秒标志
    35                        ; bit1	=一秒标志
    36                        ; bit2	=12小时/24小时制度
    37                        ; bit3	=1是润年标志
    38                        ; bit4 	=
    39                        ; bit5 	=
    40                        ; bit6	=
    41                        ; bit7	=
    42 00:00A1: xx            Sys_Flag_C				DS	1	;闹钟模式的系统状态
    43                        ; bit0 	=0闹铃界面/1 整点报时
    44                        ; bit1	=1闹钟开启0闹钟关闭
    45                        ; bit2 	=
    46                        ; bit3	=
    47                        ; bit4 	=闹钟闹铃
    48                        ; bit5 	=1按键音开启
    49                        ; bit6	=
    50                        ; bit7	=1
    51 00:00A2: xx            Sys_Flag_D				DS	1	;计时器模式的系统状态
    52                        ; bit0 	=1正计时/倒计时开启计时
    53                        ; bit1	=开始或者暂停计时
    54                        ; bit2	=第一次倒计时
    55                        ; bit3	=
    56                        ; bit4 	=定时器闹铃
    57                        ; bit5 	=
    58                        ; bit6	=
    59                        ; bit7	=
    60 00:00A3: xx            R_Reset_Time					DS	1;全显时间,一般为2s
    61                        
    62 00:00A4: xx            R_Scankey_Time					DS	1;按键按下的时间
    63                        D_Rscankey_Half_Sec				EQU	16;按键时间
    64                        D_Rscankey_Sec					EQU	32
    65                        D_Rscankey_TWO_Sec				EQU	64
    66                        
    67                        
    68 00:00A5: xx            P_Scankey_value_T_1			DS	1
    69 00:00A6: xx            P_Scankey_value				DS	1;按键存储值
    70 00:00A7: xx            P_Scankey_value_Temporary	DS	1;按键临时储存
    71                        
    72                        D_Date_Time_Press			.EQU	00010000B
    73                        D_12_24_Hour_Press			.EQU	00100000B
    74                        D_ALM_Press					.EQU	01000000B
    75                        D_Voice_Press				.EQU	10000000B
    76                        ;---------------------------------------
    77                        Time_Str_Addr	EQU		$
    78 00:00A8: xx            R_Time_Sec						DS	1;时钟的秒数;
    79 00:00A9: xx            R_Time_Min						DS	1;时钟的分钟数;
    80 00:00AA: xx            R_Time_Hr 						DS	1;时钟的小时数;
    81 00:00AB: xx            R_Time_Day 						DS	1;日
    82 00:00AC: xx            R_Time_Month 					DS	1;月
    83 00:00AD: xx            R_Time_Year						DS	1;年
    84 00:00AE: xx            R_Time_Week						DS	1;0是星期天，1是星期一---
    85                        
    86                        
    87                        
    88                        
    89                        
    90 00:00AF: xx            R_Timer_Sec						DS	1;定时器显示时间/正计时时间秒数
    91 00:00B0: xx            R_Timer_Min						DS	1;定时器显示时间/正计时时间分钟
    92 00:00B1: xx            R_Timer_Hr						DS	1;定时器显示时间/正计时时间小时
    93 00:00B2: xx            R_Timer_Sec_Backup				DS	1;定时器显示时间/正计时时间秒数
    94 00:00B3: xx            R_Timer_Min_Backup				DS	1;定时器显示时间/正计时时间分钟
    95 00:00B4: xx            R_Timer_Hr_Backup				DS	1;定时器显示时间/正计时时间小时
    96 00:00B5: xx            Timer_TurnPlate_Min				DS	1;转盘每一个分段对应时间
    97 00:00B6: xx            Timer_TurnPlate_Sec				DS	1;转盘每一个分段对应时间
    98 00:00B7: xx            Timer_TurnPlate_Min_Backup		DS	1;转盘每一个分段对应时间
    99 00:00B8: xx            Timer_TurnPlate_Sec_Backup		DS	1;转盘每一个分段对应时间
   100 00:00B9: xx            Timer_TurnPlate_Frequeny		DS	1;转盘数
   101                        
   102                        
   103                        
   104                        
   105 00:00BA: xx            R_Alarm_Clock_Mode_Dis			DS	1;显示不同的闹钟模式
   106 00:00BB: xx xx xx xx   R_Alarm_Clock_Mode				DS	5;0是关闭闹钟，1是一次性闹钟，2是每天闹钟，3是工作日闹钟，5是周末闹钟
   106 00:00BB: xx            
   107                        
   108 00:00C0: xx xx xx xx   R_Alarm_Clock_Hr				DS	5
   108 00:00C0: xx            
   109 00:00C5: xx xx xx xx   R_Alarm_Clock_Min				DS	5
   109 00:00C5: xx            
   110                        
   111 00:00CA: xx xx xx xx   R_Snz_Time						DS	5
   111 00:00CA: xx            
   112                        
   113                        
   114                        
   115                        D_Beep_Open_Last_Time_Alarm		EQU	21
   116                        
   117                        
   118                        D_Snz_Time						EQU	5
   119                        D_Snz_Frequency					EQU	6
   120                        
   121                        
   122 00:00CF: xx            R_Mode_Set					DS	1;设置模式
   123                        
   124                        
   125                        
   126                        ;---------------------------------------
   127 00:00D0: xx xx xx xx   P_Temp			ds	8
   127 00:00D0: xx xx xx xx   
   128                        ;显示从写P_Temp+4
   129                        ;---------------------------------------
   130                        ;---------------------------------------
   131                        ;***************************************
   132                        .ENDS
   133                        ;***************************************
   134                        .Udata
   135                        ;---------------------------------------
   136                        	ORG    1880H
   137                        ;---------------------------------------
   138                        ;---------------------------------------
   139 00:1880: xx            R_Set_Mode_Exit_Time			DS	1;自动设置退出时间
   140                        D_Set_Mode_Exit_Time			EQU	6
   141 00:1881: xx            R_Alarm_Clock_Open_Beep_Time	DS	1;32Hz转化为16hz
   142 00:1882: xx            R_Close_Beep_Time				DS	1;闹铃关闭时间，闹铃响多久
   143 00:1883: xx            R_Voice_Unit					DS	1;闹铃响的次数，一秒响几次
   144                        
   145                        
   146                        .ENDS
   146                        
    22                        	.include	50P016.mac
     1                        ;------------------------------------
     2                        PB2_PB2_COMS MACRO
     3                                RMB0    PADF0
     4                                SMB2    PBTYPE ;COMS
     5                                ENDM
     6                        PB2_PB2_NOMS MACRO
     7                                RMB0    PADF0
     8                                RMB2    PBTYPE ;NOMS
     9                                ENDM
    10                        PB2_PWM MACRO
    11                                SMB0    PADF0
    12                                SMB2    PBTYPE ;COMS
    13                                ENDM
    14                        PB3_PB3_COMS MACRO
    15                                RMB1    PADF0
    16                                SMB3    PBTYPE ;NMOS
    17                                ENDM
    18                        PB3_PB3_NOMS MACRO
    19                                RMB1    PADF0
    20                                RMB3    PBTYPE ;CMOS
    21                                ENDM
    22                        PB3_PWM MACRO
    23                                SMB1    PADF0
    24                                SMB3    PBTYPE ;CMOS
    25                                ENDM
    26                        
    27                        PA4_PA4 MACRO
    28                                RMB3    PADF0
    29                                RMB4    PADF0
    30                                ENDM
    31                        PA4_IR_FSUB     MACRO
    32                                SMB3    PADF0
    33                                RMB4    PADF0
    34                                ENDM
    35                        PA4_IR_TMR0_D2  MACRO
    36                                RMB3    PADF0
    37                                SMB4    PADF0
    38                                ENDM
    39                        PA4_IR_TMR0_D3  MACRO
    40                                SMB3    PADF0
    41                                SMB4    PADF0
    42                                ENDM
    43                        
    44                        PA7_PA7 MACRO
    45                                RMB2    PADF0
    46                                ENDM
    47                        
    48                        PA7_EXT MACRO
    49                                SMB2    PADF0 ;falling edge trigger
    50                                ENDM
    51                        
    52                        PC45_PC45       MACRO
    53                                RMB4    PCSEG
    54                                ENDM
    55                        
    56                        PC67_PC67       MACRO
    57                                RMB5    PCSEG
    58                                RMB4    DIVC
    59                                ENDM
    60                        
    61                        PC67_EL01       MACRO
    62                                RMB5    PCSEG
    63                                SMB4    DIVC
    64                                ENDM
    65                        
    66                        PC03_SEG       MACRO
    67                                SMB0    PCSEG
    68                                SMB1    PCSEG
    69                                SMB2    PCSEG
    70                                SMB3    PCSEG
    71                                ENDM
    72                        
    73                        PC45_SEG       MACRO
    74                                SMB4    PCSEG
    75                                ENDM
    76                        PC67_SEG	MACRO
    77                                SMB5    PCSEG
    78                                ENDM
    79                        
    80                        PD03_SEG	MACRO
    81                        		SMB6	PCSEG
    82                                ENDM
    83                        PD03_RFC	MACRO
    84                        		RMB6	PCSEG
    85                        ;		RMB0	PDSEG
    86                        ;		RMB1	PDSEG
    87                        ;		RMB2	PDSEG
    88                        ;		RMB3	PDSEG
    89                        		SMB0	RFCC0
    90                        		SMB1	RFCC0
    91                        		SMB2	RFCC0
    92                        		SMB3	RFCC0
    93                                ENDM
    94                        PD03_PD03	MACRO
    95                        		RMB6	PCSEG
    96                        ;		RMB0	PDSEG
    97                        ;		RMB1	PDSEG
    98                        ;		RMB2	PDSEG
    99                        ;		RMB3	PDSEG
   100                        		RMB0	RFCC0
   101                        		RMB1	RFCC0
   102                        		RMB2	RFCC0
   103                        		RMB3	RFCC0
   104                                ENDM
   105                        PD0_SEG	MACRO
   106                        ;		RMB6	PCSEG
   107                        		SMB0	PDSEG
   108                                ENDM
   109                        PD1_SEG	MACRO
   110                        ;		RMB6	PCSEG
   111                        		SMB1	PDSEG
   112                                ENDM
   113                        PD2_SEG	MACRO
   114                        ;		RMB6	PCSEG
   115                        		SMB2	PDSEG
   116                                ENDM
   117                        PD3_SEG	MACRO
   118                        		RMB6	PCSEG
   119                        		SMB3	PDSEG
   120                                ENDM
   121                        
   122                        PD47_SEG	MACRO
   123                        		SMB7	PCSEG
   124                                ENDM
   125                        PD47_RFC	MACRO
   126                        		RMB7	PCSEG
   127                        ;		RMB4	PDSEG
   128                        ;		RMB5	PDSEG
   129                        ;		RMB6	PDSEG
   130                        ;		RMB7	PDSEG
   131                        		SMB4	RFCC0
   132                        		SMB5	RFCC0
   133                        		SMB6	RFCC0
   134                        		SMB7	RFCC0
   135                                ENDM
   136                        PD47_PD47	MACRO
   137                        		RMB7	PCSEG
   138                        ;		RMB4	PDSEG
   139                        ;		RMB5	PDSEG
   140                        ;		RMB6	PDSEG
   141                        ;		RMB7	PDSEG
   142                        		RMB4	RFCC0
   143                        		RMB5	RFCC0
   144                        		RMB6	RFCC0
   145                        		RMB7	RFCC0
   146                                ENDM
   147                        PD4_SEG	MACRO
   148                        ;		RMB7	PCSEG
   149                        		SMB4	PDSEG
   150                                ENDM
   151                        PD5_SEG	MACRO
   152                        ;		RMB7	PCSEG
   153                        		SMB5	PDSEG
   154                                ENDM
   155                        PD6_SEG	MACRO
   156                        ;		RMB7	PCSEG
   157                        		SMB6	PDSEG
   158                                ENDM
   159                        PD7_SEG	MACRO
   160                        		RMB7	PCSEG
   161                        		SMB7	PDSEG
   162                                ENDM
   163                        
   164                        PC_PD_SEG	MACRO
   165                        		lda		#$FF
   166                        		STA		PCSEG	;S1~S7,S8~S15
   167                                ENDM
   168                        
   169                        LCD_2COM	MACRO
   170                        		SMB0	LCDCOM
   171                        		RMB1	LCDCOM
   172                        		RMB2	LCDCOM
   173                                ENDM
   174                        LCD_3COM	MACRO
   175                        		RMB0	LCDCOM
   176                        		SMB1	LCDCOM
   177                        		RMB2	LCDCOM
   178                                ENDM
   179                        LCD_4COM	MACRO
   180                        		SMB0	LCDCOM
   181                        		SMB1	LCDCOM
   182                        		RMB2	LCDCOM
   183                                ENDM
   184                        LCD_5COM	MACRO
   185                        		RMB0	LCDCOM
   186                        		RMB1	LCDCOM
   187                        		SMB2	LCDCOM
   188                                ENDM
   189                        LCD_6COM	MACRO
   190                        		SMB0	LCDCOM
   191                        		RMB1	LCDCOM
   192                        		SMB2	LCDCOM
   193                                ENDM
   194                        LCD_7COM	MACRO
   195                        		RMB0	LCDCOM
   196                        		SMB1	LCDCOM
   197                        		SMB2	LCDCOM
   198                                ENDM
   199                        LCD_8COM	MACRO
   200                        		SMB0	LCDCOM
   201                        		SMB1	LCDCOM
   202                        		SMB2	LCDCOM
   203                                ENDM
   204                        
   205                        LCD_ENCH_EN		MACRO
   206                        		SMB6	LCDCOM
   207                                ENDM
   208                        LCD_ENCH_DIS	MACRO
   209                        		RMB6	LCDCOM
   210                                ENDM
   211                        
   212                        LCD_C_TYPE	MACRO
   213                        		SMB7	LCDCOM
   214                        		SMB0	PCSEG
   215                        		SMB1	PCSEG
   216                        		SMB2	PCSEG
   217                        		SMB3	PCSEG
   218                                ENDM
   219                        LCD_DRIVE_2	MACRO
   220                        		SMB0	LCDCTRL
   221                        		RMB1	LCDCTRL
   222                                ENDM
   223                        LCD_DRIVE_4	MACRO
   224                        		RMB0	LCDCTRL
   225                        		SMB1	LCDCTRL
   226                                ENDM
   227                        LCD_DRIVE_8	MACRO
   228                        		SMB0	LCDCTRL
   229                        		SMB1	LCDCTRL
   230                                ENDM
   231                        LCD_DRIVE_FULL	MACRO
   232                        		RMB0	LCDCTRL
   233                        		RMB1	LCDCTRL
   234                                ENDM
   235                        LCD_C_1_2_BAIS_3V	MACRO
   236                        		RMB2	LCDCTRL
   237                        		RMB3	LCDCTRL
   238                                ENDM
   239                        LCD_C_1_3_BAIS_3V	MACRO
   240                        		SMB2	LCDCTRL
   241                        		RMB3	LCDCTRL
   242                                ENDM
   243                        LCD_C_1_3_BAIS_4V	MACRO
   244                        		SMB2	LCDCTRL
   245                        		SMB3	LCDCTRL
   246                                ENDM
   247                        
   248                        LCD_R_TYPE	MACRO
   249                        		RMB7	LCDCOM
   250                                ENDM
   251                        LCD_R_1_2_BAIS	MACRO
   252                        		SMB2	LCDCTRL
   253                        		SMB3	LCDCTRL
   254                                ENDM
   255                        LCD_R_1_3_BAIS	MACRO
   256                        		RMB2	LCDCTRL
   257                        		RMB3	LCDCTRL
   258                                ENDM
   259                        LCD_R_1_4_BAIS	MACRO
   260                        		SMB2	LCDCTRL
   261                        		RMB3	LCDCTRL
   262                                ENDM
   263                        ;------------------------------------
   264                        Fext_WEAK       MACRO
   265                                RMB0    SYSCLK
   266                                ENDM
   267                        Fext_STRONG     MACRO
   268                                SMB0    SYSCLK
   269                                ENDM
   270                        
   271                        Fext_OFF        MACRO
   272                                RMB1    SYSCLK
   273                                ENDM
   274                        Fext_ON         MACRO
   275                                SMB1    SYSCLK
   276                                ENDM
   277                        
   278                        Fosc_OFF        MACRO
   279                                RMB2    SYSCLK
   280                                ENDM
   281                        Fosc_ON         MACRO
   282                                SMB2    SYSCLK
   283                                ENDM
   284                        
   285                        Fext_Xtal       MACRO
   286                                RMB3    SYSCLK
   287                                ENDM
   288                        Fext_RC         MACRO
   289                                SMB3    SYSCLK
   290                                ENDM
   291                        
   292                        Fsys_4MHZ MACRO
   293                                RMB4    SYSCLK
   294                                RMB5    SYSCLK
   295                                ENDM
   296                        Fsys_2MHZ MACRO
   297                                SMB4    SYSCLK
   298                                RMB5    SYSCLK
   299                                ENDM
   300                        Fsys_1MHZ MACRO
   301                                RMB4    SYSCLK
   302                                SMB5    SYSCLK
   303                                ENDM
   304                        Fsys_500K MACRO
   305                                SMB4    SYSCLK
   306                                SMB5    SYSCLK
   307                                ENDM
   308                        
   309                        Fsub_Fext MACRO
   310                                SMB6    SYSCLK
   311                                ENDM
   312                        Fsub_32KCLK     MACRO
   313                                RMB6    SYSCLK
   314                                ENDM
   315                        
   316                        Fcpu_Fext  MACRO
   317                                SMB7    SYSCLK
   318                                ENDM
   319                        Fcpu_Fsys  MACRO
   320                                RMB7    SYSCLK
   321                                ENDM
   322                        
   323                        ;------------------------------------
   324                        DIV_8KHZ  MACRO
   325                                RMB0    DIVC
   326                                RMB1    DIVC
   327                        		RMB5	DIVC
   328                                ENDM
   329                        DIV_16KHZ  MACRO
   330                                SMB0    DIVC
   331                                RMB1    DIVC
   332                        		RMB5	DIVC
   333                                ENDM
   334                        DIV_512HZ  MACRO
   335                                RMB0    DIVC
   336                                SMB1    DIVC
   337                        		RMB5	DIVC
   338                                ENDM
   339                        DIV_1KHZ  MACRO
   340                                SMB0    DIVC
   341                                SMB1    DIVC
   342                        		RMB5	DIVC
   343                                ENDM
   344                        DIV_256HZ  MACRO
   345                        		SMB5	DIVC
   346                                ENDM
   347                        ;------------------------------------
   348                        WDTC_CLK_256HZ   MACRO
   349                                RMB0    WDTC
   350                                RMB1    WDTC
   351                                ENDM
   352                        WDTC_CLK_DIV     MACRO
   353                                SMB0    WDTC
   354                                RMB1    WDTC
   355                                ENDM
   356                        WDTC_CLK_TMR1   MACRO
   357                                RMB0    WDTC
   358                                SMB1    WDTC
   359                                ENDM
   360                        WDTC_CLK_LCDS    MACRO
   361                                SMB0    WDTC
   362                                SMB1    WDTC
   363                                ENDM
   364                        
   365                        WDTC_CLR MACRO
   366                                RMB2    WDTC
   367                                ENDM
   368                        
   369                        WDTC_ON  MACRO
   370                                SMB3    WDTC
   371                                ENDM
   372                        WDTC_OFF MACRO
   373                                RMB3    WDTC
   374                                ENDM
   375                        
   376                        IF_WDTC MACRO   LAB
   377                                BBS4    WDTC,LAB
   378                                ENDM
   379                        
   380                        ;------------------------------------
   381                        TMR0_ON MACRO
   382                                SMB0    TMRC
   383                                ENDM
   384                        TMR0_OFF MACRO
   385                                RMB0    TMRC
   386                                ENDM
   387                        TMR0_CLK_FOSC   MACRO
   388                                SMB0    TMCLK
   389                                RMB1    TMCLK
   390                                ENDM
   391                        TMR0_CLK_FSUB    MACRO
   392                                RMB0    TMCLK
   393                                RMB1    TMCLK
   394                                RMB0	PADF1
   395                                ENDM
   396                        TMR0_CLK_128K	macro
   397                        		RMB0    TMCLK
   398                                SMB1    TMCLK
   399                                ENDM
   400                        TMR0_CLK_32K	macro
   401                        		RMB0    TMCLK
   402                                RMB1    TMCLK
   403                                SMB0	PADF1
   404                                ENDM
   405                        TMR0_CLK_1M   MACRO
   406                                SMB0    TMCLK
   407                                SMB1    TMCLK
   408                                RMB6	TMRC
   409                                ENDM
   410                        
   411                        TMR1_ON MACRO
   412                                SMB1    TMRC
   413                                ENDM
   414                        TMR1_OFF MACRO
   415                                RMB1    TMRC
   416                                ENDM
   417                        TMR1_CLK_TMR0   MACRO
   418                                RMB2    TMCLK
   419                                RMB3    TMCLK
   420                                ENDM
   421                        TMR1_CLK_512Hz    MACRO
   422                                SMB2    TMCLK
   423                                RMB3    TMCLK
   424                                ENDM
   425                        TMR1_CLK_128K	macro
   426                        		RMB2    TMCLK
   427                                SMB3    TMCLK
   428                                ENDM
   429                        TMR1_CLK_1M		macro
   430                        		SMB2    TMCLK
   431                                SMB3    TMCLK
   432                                ENDM
   433                        
   434                        TMR2_ON MACRO
   435                                SMB2    TMRC
   436                                ENDM
   437                        TMR2_OFF MACRO
   438                                RMB2    TMRC
   439                                ENDM
   440                        ;TMR2_CLK_1KDIV2    MACRO
   441                        ;       RMB4    TMCLK
   442                        ;        RMB5    TMCLK
   443                        ;        ENDM
   444                        ;TMR2_CLK_1KDIV3    MACRO
   445                        ;        SMB4    TMCLK
   446                        ;        RMB5    TMCLK
   447                        ;        ENDM
   448                        ;TMR2_CLK_FOSCDIV8  MACRO
   449                        ;        RMB4    TMCLK
   450                        ;        SMB5    TMCLK
   451                        ;        ENDM
   452                        ;TMR2_CLK_FSUB      MACRO
   453                        ;        SMB4    TMCLK
   454                        ;        SMB5    TMCLK
   455                        ;        ENDM
   456                        
   457                        
   458                        TONE_2KHZ       MACRO
   459                                RMB2    DIVC
   460                                RMB3    DIVC
   461                                ENDM
   462                        TONE_TMR0_2     MACRO
   463                                SMB2    DIVC
   464                                RMB3    DIVC
   465                                ENDM
   466                        TONE_L       MACRO
   467                                RMB2    DIVC
   468                                SMB3    DIVC
   469                                ENDM
   470                        TONE_H       MACRO
   471                                SMB2    DIVC
   472                                SMB3    DIVC
   473                                ENDM
   474                        ;------------------------------------
   475                        EN_DIV_IRQ     MACRO
   476                                SMB0    IER
   477                                ENDM
   478                        EN_TMR0_IRQ     MACRO
   479                                SMB1    IER
   480                                ENDM
   481                        EN_TMR1_IRQ     MACRO
   482                                SMB2    IER
   483                                ENDM
   484                        EN_TMR2_IRQ     MACRO
   485                                SMB3    IER
   486                                ENDM
   487                        EN_KEY_IRQ      MACRO
   488                                SMB4    IER
   489                                ENDM
   490                        EN_PA_IRQ      MACRO
   491                                SMB4    IER
   492                                ENDM
   493                        EN_EXT_IRQ      MACRO
   494                                SMB5    IER
   495                                ENDM
   496                        EN_LCD_IRQ      MACRO
   497                                SMB6    IER
   498                                ENDM
   499                        
   500                        DIS_DIV_IRQ     MACRO
   501                                RMB0    IER
   502                                ENDM
   503                        DIS_TMR0_IRQ     MACRO
   504                                RMB1    IER
   505                                ENDM
   506                        DIS_TMR1_IRQ     MACRO
   507                                RMB2    IER
   508                                ENDM
   509                        DIS_TMR2_IRQ     MACRO
   510                                RMB3    IER
   511                                ENDM
   512                        DIS_KEY_IRQ      MACRO
   513                                RMB4    IER
   514                                ENDM
   515                        DIS_PA_IRQ		 MACRO
   516                                RMB4    IER
   517                                ENDM
   518                        DIS_EXT_IRQ      MACRO
   519                                RMB5    IER
   520                                ENDM
   521                        DIS_LCD_IRQ      MACRO
   522                                RMB6    IER
   523                                ENDM
   524                        
   525                        CLR_DIV_IRQ_FLAG MACRO
   526                                RMB0    IFR
   527                                ENDM
   528                        CLR_TMR0_IRQ_FLAG      MACRO
   529                                RMB1    IFR
   530                                ENDM
   531                        CLR_TMR1_IRQ_FLAG      MACRO
   532                                RMB2    IFR
   533                                ENDM
   534                        CLR_TMR2_IRQ_FLAG      MACRO
   535                                RMB3    IFR
   536                                ENDM
   537                        CLR_KEY_IRQ_FLAG      MACRO
   538                                RMB4    IFR
   539                                ENDM
   540                        CLR_PA_IRQ_FLAG      MACRO
   541                                RMB4    IFR
   542                                ENDM
   543                        CLR_PA_IRQF      MACRO
   544                                RMB4    IFR
   545                                ENDM
   546                        CLR_EXT_IRQ_FLAG       MACRO
   547                                RMB5    IFR
   548                                ENDM
   549                        CLR_LCD_IRQ_FLAG       MACRO
   550                                RMB6    IFR
   551                                ENDM
   552                        
   553                        IF_DIV_IRQ_FLAG MACRO   LAB1
   554                                BBS0    IFR,LAB1
   555                                ENDM
   556                        IF_TMR0_IRQ_FLAG MACRO   LAB1
   557                                BBS1    IFR,LAB1
   558                                ENDM
   559                        IF_TMR1_IRQ_FLAG MACRO   LAB1
   560                                BBS2    IFR,LAB1
   561                                ENDM
   562                        IF_TMR2_IRQ_FLAG MACRO   LAB1
   563                                BBS3    IFR,LAB1
   564                                ENDM
   565                        IF_KEY_IRQ_FLAG MACRO   LAB1
   566                                BBS4    IFR,LAB1
   567                                ENDM
   568                        IF_EXT_IRQ_FLAG MACRO   LAB1
   569                                BBS5    IFR,LAB1
   570                                ENDM
   571                        IF_LCD_IRQ_FLAG MACRO   LAB1
   572                                BBS6    IFR,LAB1
   573                                ENDM
   574                        ;------------------------------------
   575                        LCD_ON           MACRO
   576                                SMB4    TMRC
   577                                ENDM
   578                        LCD_OFF          MACRO
   579                                RMB4    TMRC
   580                                ENDM
   581                        
   582                        PWM_ON  MACRO
   583                        		SMB0	SYSCLK	;Strong Mode
   584                                SMB7    TMRC
   585                                ENDM
   586                        PWM_OFF MACRO
   587                                RMB7    TMRC
   588                        ;		lda		R_Strong_2S
   589                        ;		bne		?Skip
   590                        		RMB0	SYSCLK	;WeakMode
   591                        ?Skip:
   592                                ENDM
   593                        ;DAC_ON		MACRO
   594                        ;	SMB7	P_TMRCTRL
   595                        ;	ENDM
   596                        ;DAC_OFF		MACRO
   597                        ;	RMB7	P_TMRCTRL
   598                        ;	ENDM
   599                        
   600                        IF_PWM_ON       MACRO   LAB
   601                                BBS7    TMRC,LAB
   602                                ENDM
   603                        IF_PWM_OFF      MACRO   LAB
   604                                BBR7    TMRC,LAB
   605                                ENDM
   606                        
   607                        SEL_PWM MACRO
   608                                SMB1    AUDCR
   609                                ENDM
   610                        DAC_LATCH_TMR0	MACRO
   611                        		SMB5	AUDCR
   612                        		ENDM
   613                        SEL_TONE MACRO
   614                                RMB2    AUDCR
   615                                RMB4    AUDCR
   616                                RMB5    AUDCR
   617                                ENDM
   618                        
   619                        SEL_MELODY  MACRO
   620                                RMB2    AUDCR
   621                                SMB4    AUDCR
   622                        ;        SMB5    AUDCR
   623                                RMB5    AUDCR
   624                                ENDM
   625                        SEL_VOICE   MACRO
   626                                SMB2    AUDCR
   627                                RMB4    AUDCR
   628                                SMB5    AUDCR
   629                                ENDM
   630                        ;------------------------------------
   631                        ClrAllRam MACRO
   632                            LDA		#$00
   633                        	LDX		#$FF
   634                        	STA		$1800
   635                        ?ClrAllRamLoop:
   636                        	STA		$1800,X
   637                        	DEX
   638                        	BNE		?ClrAllRamLoop
   639                            ENDM
   640                        ;------------------------------------
   641                        CHECK_LCD	MACRO
   642                        	LDA		#11111110B
   643                        	STA		P_PC_DIR		;PC0 is Output
   644                        	LDA		#11111110B
   645                        	STA		P_PC			;PC0 Output "0"
   646                        	NOP
   647                        	NOP
   648                        	NOP
   649                        	LDA		P_PC
   650                        	AND		#00000010B
   651                        ?_Loop
   652                        	STA		P_Temp+1
   653                        	LDA		#$0F
   654                        ?_LoopPort
   655                        	DEC
   656                        	BNE		?_LoopPort
   657                        	LDA		P_PC
   658                        	AND		#00000010B
   659                        	STA		P_Temp
   660                        	CMP		P_Temp+1
   661                        	BNE		?_Loop
   662                        	BBS1	P_Temp,?LCD_R_Type
   663                        ?LCD_C_Type:
   664                        	LCD_C_TYPE
   665                        	LCD_ENCH_EN
   666                        	LCD_4COM
   667                        	LCD_DRIVE_8
   668                        	LCD_C_1_3_BAIS_3V
   669                        	JMP		?Exit
   670                        ?LCD_R_Type:
   671                        	LCD_R_TYPE
   672                        ;	LCD_ENCH_EN
   673                        	LCD_4COM
   674                        ;	LCD_DRIVE_8
   675                        	LCD_R_1_3_BAIS
   676                        
   677                        ?Exit:
   678                        	LDA		#$00
   679                        	STA		P_PC_IO
   680                        	STA		P_PC
   681                        ;	STA		P_PC_IO_Backup
   682                        ;	STA		P_PC_Backup
   683                        	ENDM
   684                        ;------------------------------------
   685                        ;------------------------------------
   685                        
    23                        	.INCLUDE	MACRO.MAC
     1                        ;***********************************************************************
     2                        BRA_IDX MACRO	MEM
     3                        	if	MEM<$100
     4                        	BRA	($80+MEM)
     5                        	else
     6                        	BRA	(MEM)
     7                        	endif
     8                        	ENDM
     9                        
    10                        LDLN	MACRO	mem
    11                        	if	mem<$100
    12                        	LDA	$780+mem
    13                        	else
    14                        	LDA	$700+mem
    15                        	endif
    16                        	ENDM
    17                        
    18                        LDHN	MACRO	mem
    19                        	if	mem<$100
    20                        	LDA	$F80+mem
    21                        	else
    22                        	LDA	$F00+mem
    23                        	endif
    24                        	ENDM
    25                        
    26                        STLN	MACRO	mem
    27                        	if	mem<$100
    28                        	STA	$780+mem
    29                        	else
    30                        	STA	$700+mem
    31                        	endif
    32                        	ENDM
    33                        
    34                        STHN	MACRO	mem
    35                        	if	mem<$100
    36                        	STA	$F80+mem
    37                        	else
    38                        	STA	$F00+mem
    39                        	endif
    40                        	ENDM
    41                        
    42                        LXLN	MACRO	mem
    43                        	if	mem<$100
    44                        	LDX	$780+mem
    45                        	else
    46                        	LDX	$700+mem
    47                        	endif
    48                        	ENDM
    49                        
    50                        LXHN	MACRO	mem
    51                        	if	mem<$100
    52                        	LDX	$F80+mem
    53                        	else
    54                        	LDX	$F00+mem
    55                        	endif
    56                        	ENDM
    57                        
    58                        SXLN	MACRO	mem
    59                        	if	mem<$100
    60                        	STX	$780+mem
    61                        	else
    62                        	STX	$700+mem
    63                        	endif
    64                        	ENDM
    65                        
    66                        SXHN	MACRO	mem
    67                        	if	mem<$100
    68                        	STX	$F80+mem
    69                        	else
    70                        	STX	$F00+mem
    71                        	endif
    72                        	ENDM
    73                        
    74                        LDLN_X	MACRO	mem
    75                        	if	mem<$100
    76                        	LDA	$780+mem,X
    77                        	else
    78                        	LDA	$700+mem,X
    79                        	endif
    80                        	ENDM
    81                        
    82                        STLN_X	MACRO	mem
    83                        	if	mem<$100
    84                        	STA	$780+mem,X
    85                        	else
    86                        	STA	$700+mem,X
    87                        	endif
    88                        	ENDM
    89                        
    90                        LDHN_X	MACRO	mem
    91                        	if	mem<$100
    92                        	LDA	$F80+mem,X
    93                        	else
    94                        	LDA	$F00+mem,X
    95                        	endif
    96                        	ENDM
    97                        
    98                        STHN_X	MACRO	mem
    99                        	if	mem<$100
   100                        	STA	$F80+mem,X
   101                        	else
   102                        	STA	$F00+mem,X
   103                        	endif
   104                        	ENDM
   105                        
   106                        INCHN_X	MACRO	mem
   107                        	if	mem<$100
   108                        	INC	$F80+mem,X
   109                        	else
   110                        	INC	$F00+mem,X
   111                        	endif
   112                        	ENDM
   113                        
   114                        DECHN_X	MACRO	mem
   115                        	if	mem<$100
   116                        	DEC	$F80+mem,X
   117                        	else
   118                        	DEC	$F00+mem,X
   119                        	endif
   120                        	ENDM
   121                        
   122                        ADCLN	MACRO	mem
   123                        	if	mem<$100
   124                        	ADC	$780+mem
   125                        	else
   126                        	ADC	$700+mem
   127                        	endif
   128                        	ENDM
   129                        
   130                        ADCHN	MACRO	mem
   131                        	if	mem<$100
   132                        	ADC	$F80+mem
   133                        	else
   134                        	ADC	$F00+mem
   135                        	endif
   136                        	ENDM
   137                        
   138                        CMPLN	MACRO	mem
   139                        	if	mem<$100
   140                        	CMP	$780+mem
   141                        	else
   142                        	CMP	$700+mem
   143                        	endif
   144                        	ENDM
   145                        
   146                        CMPHN	MACRO	mem
   147                        	if	mem<$100
   148                        	CMP	$F80+mem
   149                        	else
   150                        	CMP	$F00+mem
   151                        	endif
   152                        	ENDM
   153                        
   154                        INCLN	MACRO	mem
   155                        	if	mem<$100
   156                        	INC	$780+mem
   157                        	else
   158                        	INC	$700+mem
   159                        	endif
   160                        	ENDM
   161                        
   162                        INCHN	MACRO	mem
   163                        	if	mem<$100
   164                        	INC	$F80+mem
   165                        	else
   166                        	INC	$F00+mem
   167                        	endif
   168                        	ENDM
   169                        
   170                        DECLN	MACRO	mem
   171                        	if	mem<$100
   172                        	DEC	$780+mem
   173                        	else
   174                        	DEC	$700+mem
   175                        	endif
   176                        	ENDM
   177                        
   178                        DECHN	MACRO	mem
   179                        	if	mem<$100
   180                        	DEC	$F80+mem
   181                        	else
   182                        	DEC	$F00+mem
   183                        	endif
   184                        	ENDM
   185                        
   186                        LDA_X	MACRO	mem
   187                        	if	mem<$100
   188                        	LDA	$80+mem,X
   189                        	else
   190                        	LDA	mem,X
   191                        	endif
   192                        	ENDM
   193                        
   194                        STA_X	MACRO	mem
   195                        	if	mem<$100
   196                        	STA	$80+mem,X
   197                        	else
   198                        	STA	mem,X
   199                        	endif
   200                        	ENDM
   201                        
   202                        STZ_X	MACRO	mem
   203                        	if	mem<$100
   204                        	STZ	$80+mem,X
   205                        	else
   206                        	STZ	mem,X
   207                        	endif
   208                        	ENDM
   209                        
   210                        INC_X	MACRO	mem
   211                        	if	mem<$100
   212                        	INC	$80+mem,X
   213                        	else
   214                        	INC	mem,X
   215                        	endif
   216                        	ENDM
   217                        
   218                        ADC_X	MACRO	mem
   219                        	if	mem<$100
   220                        	ADC	$80+mem,X
   221                        	else
   222                        	ADC	mem,X
   223                        	endif
   224                        	ENDM
   225                        
   226                        SBC_X	MACRO	mem
   227                        	if	mem<$100
   228                        	SBC	$80+mem,X
   229                        	else
   230                        	SBC	mem,X
   231                        	endif
   232                        	ENDM
   233                        
   234                        CMP_X	MACRO	mem
   235                        	if	mem<$100
   236                        	CMP	$80+mem,X
   237                        	else
   238                        	CMP	mem,X
   239                        	endif
   240                        	ENDM
   241                        
   242                        ASLLN	MACRO	mem
   243                        	if	mem<$100
   244                        	ASL	$780+mem
   245                        	else
   246                        	ASL	$700+mem
   247                        	endif
   248                        	ENDM
   249                        
   250                        LSRLN	MACRO	mem
   251                        	if	mem<$100
   252                        	LSR	$780+mem
   253                        	else
   254                        	LSR	$700+mem
   255                        	endif
   256                        	ENDM
   257                        
   258                        ROLLN	MACRO	mem
   259                        	if	mem<$100
   260                        	ROL	$780+mem
   261                        	else
   262                        	ROL	$700+mem
   263                        	endif
   264                        	ENDM
   265                        
   266                        RORLN	MACRO	mem
   267                        	if	mem<$100
   268                        	ROR	$780+mem
   269                        	else
   270                        	ROR	$700+mem
   271                        	endif
   272                        	ENDM
   273                        
   274                        ASLHN	MACRO	mem
   275                        	if	mem<$100
   276                        	ASL	$F80+mem
   277                        	else
   278                        	ASL	$F00+mem
   279                        	endif
   280                        	ENDM
   281                        
   282                        LSRHN	MACRO	mem
   283                        	if	mem<$100
   284                        	LSR	$F80+mem
   285                        	else
   286                        	LSR	$F00+mem
   287                        	endif
   288                        	ENDM
   289                        
   290                        ROLHN	MACRO	mem
   291                        	if	mem<$100
   292                        	ROL	$F80+mem
   293                        	else
   294                        	ROL	$F00+mem
   295                        	endif
   296                        	ENDM
   297                        
   298                        RORHN	MACRO	mem
   299                        	if	mem<$100
   300                        	ROR	$F80+mem
   301                        	else
   302                        	ROR	$F00+mem
   303                        	endif
   304                        	ENDM
   305                        
   306                        
   307                        BR0	MACRO	PARA,VAR,LABLE
   308                        	BBR@<VAR.mod.8> PARA,LABLE
   309                        	ENDM
   310                        
   311                        BR1	MACRO	PARA,VAR,LABLE
   312                        	BBS@<VAR.mod.8>	PARA,LABLE
   313                        	ENDM
   314                        
   315                        xSETB	MACRO	flag,bit
   316                        	SMB@<bit>  flag
   317                        	ENDM
   318                        
   319                        xCLRB	MACRO	flag,bit
   320                        	RMB@<bit>  flag
   321                        	ENDM
   321                        
    24                        ;***************************************
    25                        STACK_BOT		EQU		FFH                     ;堆栈底部
    26                        ;***************************************
    27                        	.PROG										;程序开始
    28                        V_RESET:
    29 00:C000: 1A            	NOP
    30 00:C001: 1A            	NOP
    31 00:C002: 1A            	NOP
    32 00:C003: 5E FF         	LDX		#STACK_BOT
    33 00:C005: 1E            	TXS	      ;使用这个值初始化堆栈指针，这通常是为了设置堆栈的底部地址，确保程序运行中堆栈的正确使用。
    34 00:C006: 53 B7         	LDA		#$B7	;#$07
    35 00:C008: 7F 1D         	STA		SYSCLK	;设置系统时钟
    36 00:C00A: 73 3E         	LDA		FUSE
    37 00:C00C: 7F 2F         	STA		MF	;精准主频3.64M
    38                        ;***************************************
    39                        	ClrAllRam	;清空ram
+   39 00:C00E: 53 00          LDA #$0000
+   39 00:C010: 5E FF          LDX #$00FF
+   39 00:C012: 4F 00 18       STA $1800
+   39                        ?ClrAllRamLoop:
+   39 00:C015: 6F 00 18       STA $1800,X
+   39 00:C018: 0F             DEX
+   39 00:C019: 12 FA          BNE ?ClrAllRamLoop
    40                        	WDTC_CLR
+   40 00:C01B: 22 1C          RMB2 WDTC
    41                        	CHECK_LCD   ;初始化LCD
+   41 00:C01D: 53 FE          LDA #$00FE
+   41 00:C01F: 7F 08          STA P_PC_DIR
+   41 00:C021: 53 FE          LDA #$00FE
+   41 00:C023: 7F 07          STA P_PC
+   41 00:C025: 1A             NOP
+   41 00:C026: 1A             NOP
+   41 00:C027: 1A             NOP
+   41 00:C028: 73 07          LDA P_PC
+   41 00:C02A: 51 02          AND #$0002
+   41                        ?_Loop
+   41 00:C02C: 7F D1          STA P_Temp+$0001
+   41 00:C02E: 53 0F          LDA #$000F
+   41                        ?_LoopPort
+   41 00:C030: 07             DEC
+   41 00:C031: 12 FD          BNE ?_LoopPort
+   41 00:C033: 73 07          LDA P_PC
+   41 00:C035: 51 02          AND #$0002
+   41 00:C037: 7F D0          STA P_Temp
+   41 00:C039: 76 D1          CMP P_Temp+$0001
+   41 00:C03B: 12 EF          BNE ?_Loop
+   41 00:C03D: 39 D0 1D       BBS1 P_Temp,?LCD_R_Type
+   41                        ?LCD_C_Type:
+   41                         LCD_C_TYPE
+   41 00:C040: 2F 1A          SMB7 LCDCOM
+   41 00:C042: 28 09          SMB0 PCSEG
+   41 00:C044: 29 09          SMB1 PCSEG
+   41 00:C046: 2A 09          SMB2 PCSEG
+   41 00:C048: 2B 09          SMB3 PCSEG
+   41                         LCD_ENCH_EN
+   41 00:C04A: 2E 1A          SMB6 LCDCOM
+   41                         LCD_4COM
+   41 00:C04C: 28 1A          SMB0 LCDCOM
+   41 00:C04E: 29 1A          SMB1 LCDCOM
+   41 00:C050: 22 1A          RMB2 LCDCOM
+   41                         LCD_DRIVE_8
+   41 00:C052: 28 19          SMB0 LCDCTRL
+   41 00:C054: 29 19          SMB1 LCDCTRL
+   41                         LCD_C_1_3_BAIS_3V
+   41 00:C056: 2A 19          SMB2 LCDCTRL
+   41 00:C058: 23 19          RMB3 LCDCTRL
+   41 00:C05A: 16 69 C0       JMP ?Exit
+   41                        ?LCD_R_Type:
+   41                         LCD_R_TYPE
+   41 00:C05D: 27 1A          RMB7 LCDCOM
+   41                        
+   41                         LCD_4COM
+   41 00:C05F: 28 1A          SMB0 LCDCOM
+   41 00:C061: 29 1A          SMB1 LCDCOM
+   41 00:C063: 22 1A          RMB2 LCDCOM
+   41                        
+   41                         LCD_R_1_3_BAIS
+   41 00:C065: 22 19          RMB2 LCDCTRL
+   41 00:C067: 23 19          RMB3 LCDCTRL
+   41                        
+   41                        ?Exit:
+   41 00:C069: 53 00          LDA #$0000
+   41 00:C06B: 7F 08          STA P_PC_IO
+   41 00:C06D: 7F 07          STA P_PC
+   41                        
+   41                        
    42 00:C06F: 53 2B         	LDA		#43
    43 00:C071: 7F 21         	STA		FRAME
    44                        ;***************************************定时器初始化，特殊功能寄存器初始化
    45 00:C073: 53 00         	LDA		#0
    46 00:C075: 7F 0D         	STA		PADF1  ;定时器0的时钟源选择
    47 00:C077: 7F 10         	STA		TMR0   ;128HZ
    48 00:C079: 7F 12         	STA		TMR1   ;512
    49 00:C07B: 7F 14         	STA		TMR2	;定时器的开始数
    50 00:C07D: 7F 18         	STA		DIVC    ;分频控制器，定时器与DICV异步   2048
    51 00:C07F: 7F 0E         	STA		IER     ;不允许中断
    52 00:C081: 7F 0F         	STA		IFR     ;中断请求标志
    53 00:C083: 7F 1F         	STA		AUD0    ;pwm输出值设置
    54 00:C085: 7F 20         	STA		AUDCR   ;
    55 00:C087: 7F 05         	STA		PB
    56                        ;***************************************LCD初始化
    57                        	LCD_C_TYPE
+   57 00:C089: 2F 1A          SMB7 LCDCOM
+   57 00:C08B: 28 09          SMB0 PCSEG
+   57 00:C08D: 29 09          SMB1 PCSEG
+   57 00:C08F: 2A 09          SMB2 PCSEG
+   57 00:C091: 2B 09          SMB3 PCSEG
    58                        	LCD_ENCH_EN
+   58 00:C093: 2E 1A          SMB6 LCDCOM
    59                        	LCD_8COM
+   59 00:C095: 28 1A          SMB0 LCDCOM
+   59 00:C097: 29 1A          SMB1 LCDCOM
+   59 00:C099: 2A 1A          SMB2 LCDCOM
    60                        	LCD_DRIVE_8
+   60 00:C09B: 28 19          SMB0 LCDCTRL
+   60 00:C09D: 29 19          SMB1 LCDCTRL
    61                        	LCD_C_1_3_BAIS_4V
+   61 00:C09F: 2A 19          SMB2 LCDCTRL
+   61 00:C0A1: 2B 19          SMB3 LCDCTRL
    62                        ;***************************************端口配置（等待图纸）
    63 00:C0A3: 15 54 C1      	JSR		L_Scankey_INIT
    64 00:C0A6: 28 1D         	SMB0	P_SYSCLK
    65                        
    66                        
    67                        	PB2_PB2_COMS
+   67 00:C0A8: 20 0C          RMB0 PADF0
+   67 00:C0AA: 2A 06          SMB2 PBTYPE
    68                        	PB3_PB3_NOMS
+   68 00:C0AC: 21 0C          RMB1 PADF0
+   68 00:C0AE: 23 06          RMB3 PBTYPE
    69                        
    70                        	PC67_SEG
+   70 00:C0B0: 2D 09          SMB5 PCSEG
    71                        	PC45_SEG
+   71 00:C0B2: 2C 09          SMB4 PCSEG
    72                        	PD03_SEG
+   72 00:C0B4: 2E 09          SMB6 PCSEG
    73                        	PD47_PD47
+   73 00:C0B6: 27 09          RMB7 PCSEG
+   73                        
+   73                        
+   73                        
+   73                        
+   73 00:C0B8: 24 5D          RMB4 RFCC0
+   73 00:C0BA: 25 5D          RMB5 RFCC0
+   73 00:C0BC: 26 5D          RMB6 RFCC0
+   73 00:C0BE: 27 5D          RMB7 RFCC0
    74                        
    75 00:C0C0: 15 34 C1      	JSR		L_Init_SystemRam_Prog   ;初始化系统RAM并禁用所有断电保留的RAM
    76 00:C0C3: 15 43 C1      	JSR		L_Dis_All_DisRam_Prog	;初始化系统RAM并禁用所有断电保留的RAM
    77                        ;***************************************开启中断
    78 00:C0C6: 20 18         	RMB0	DIVC
    79 00:C0C8: 29 18         	SMB1	DIVC
    80 00:C0CA: 2D 18         	SMB5	DIVC
    81                        	TMR1_CLK_512Hz;初始化定时器1为256hz,定时器2为512hz
+   81 00:C0CC: 2A 17          SMB2 TMCLK
+   81 00:C0CE: 23 17          RMB3 TMCLK
    82                        	; LDA		#174
    83                        	; STA		TMR2
    84                        	LCD_ON
+   84 00:C0D0: 2C 16          SMB4 TMRC
    85                        	TMR1_ON;半秒计时
+   85 00:C0D2: 29 16          SMB1 TMRC
    86                        	EN_TMR1_IRQ              ;定时器和LCD使能
+   86 00:C0D4: 2A 0E          SMB2 IER
    87                        	EN_PA_IRQ;下降沿触发
+   87 00:C0D6: 2C 0E          SMB4 IER
    88 00:C0D8: 53 07         	LDA		#$07		;#$07    系统时钟和中断使能
    89 00:C0DA: 7F 1D         	STA		SYSCLK		;Strong
    90 00:C0DC: 05            	CLI
    91                        
    92                        ;***********************************************************************
    93                        ;***********************************************************************
    94                        MainLoop:
    95                        
    96                        	; JSR		L_Update_Timer_Ms_Prog
    97                        	; JSR		L_LCD_IRQ_WorkProg
    98                        	; JSR		L_Half_Second_Prog
    99 00:C0DD: 43 83 18      	LDA		R_Voice_Unit
   100 00:C0E0: 12 FB         	BNE		MainLoop
   101                        
   102                        
   103                        	Fsys_500k
+  103 00:C0E2: 2C 1D          SMB4 SYSCLK
+  103 00:C0E4: 2D 1D          SMB5 SYSCLK
   104                        
   105 00:C0E6: 1A            	NOP
   106 00:C0E7: 1A            	NOP
   107 00:C0E8: 1A            	NOP
   108 00:C0E9: 7F 1E         	STA		P_HALT
   109                        	Fsys_2MHZ
+  109 00:C0EB: 2C 1D          SMB4 SYSCLK
+  109 00:C0ED: 25 1D          RMB5 SYSCLK
   110                        
   111 00:C0EF: 17 EC         	BRA		MainLoop
   112                        
   113                        ;***********************************************************************
   114                        ;***********************************************************************
   115                        V_IRQ:
   116 00:C0F1: 0A            	PHA
   117 00:C0F2: 73 0E         	LDA		P_IER
   118 00:C0F4: 71 0F         	AND		P_IFR
   119 00:C0F6: 7F 9E         	STA		R_Int_Backup
   120                        
   121 00:C0F8: 3E 9E 33      	BBS6	R_Int_Backup,L_LcdIrq
   122 00:C0FB: 3B 9E 12      	BBS3	R_Int_Backup,L_Timer2Irq
   123 00:C0FE: 3C 9E 23      	BBS4	R_Int_Backup,L_PaIrp
   124 00:C101: 38 9E 08      	BBS0	R_Int_Backup,L_DivIrq
   125 00:C104: 3A 9E 15      	BBS2	R_Int_Backup,L_Timer1Irq
   126 00:C107: 39 9E 0E      	BBS1	R_Int_Backup,L_Timer0Irq
   127 00:C10A: 17 26         	BRA		L_EndIrq
   128                        
   129                        L_DivIrq:
   130                        	CLR_DIV_IRQ_FLAG
+  130 00:C10C: 20 0F          RMB0 IFR
   131 00:C10E: 17 22         	BRA		L_EndIrq
   132                        
   133                        L_Timer2Irq:
   134                        	CLR_TMR2_IRQ_FLAG
+  134 00:C110: 23 0F          RMB3 IFR
   135                        	WDTC_CLR
+  135 00:C112: 22 1C          RMB2 WDTC
   136 00:C114: 29 A2         	SMB1	Sys_Flag_D
   137 00:C116: 17 1A         	BRA		L_EndIrq
   138                        
   139                        L_Timer0Irq:
   140                        	CLR_TMR0_IRQ_FLAG
+  140 00:C118: 21 0F          RMB1 IFR
   141 00:C11A: 17 16         	BRA		L_EndIrq
   142                        
   143                        L_Timer1Irq:
   144                        	CLR_TMR1_IRQ_FLAG
+  144 00:C11C: 22 0F          RMB2 IFR
   145                        	WDTC_CLR
+  145 00:C11E: 22 1C          RMB2 WDTC
   146 00:C120: 28 A0         	SMB0	Sys_Flag_B	;设置Half Second Flag
   147 00:C122: 17 0E         	BRA		L_EndIrq
   148                        
   149                        L_PaIrp:
   150                        	CLR_KEY_IRQ_FLAG
+  150 00:C124: 24 0F          RMB4 IFR
   151                        	EN_LCD_IRQ
+  151 00:C126: 2E 0E          SMB6 IER
   152                        	DIS_PA_IRQ
+  152 00:C128: 24 0E          RMB4 IER
   153 00:C12A: 29 9F         	SMB1	Sys_Flag_A
   154 00:C12C: 17 04         	BRA		L_EndIrq
   155                        L_LcdIrq:
   156                        	CLR_LCD_IRQ_FLAG
+  156 00:C12E: 26 0F          RMB6 IFR
   157 00:C130: 28 9F         	SMB0	Sys_Flag_A	;设置LCD中断标志，32Hz扫描
   158                        L_EndIrq:
   159                        ;	BBS3	IFR,L_Timer2Irq
   160 00:C132: 0C            	PLA
   161 00:C133: 08            	RTI
   162                        ;***********************************************************************
   163                        .INCLUDE	Init.asm
     1                        ;------------------------------------------------------
     2                        L_Init_SystemRam_Prog:     ;初始化系统RAM的程序数据
     3 00:C134: 53 04         	LDA		#4
     4 00:C136: 7F A3         	STA		R_Reset_Time
     5 00:C138: 53 19         	LDA		#25
     6 00:C13A: 7F AD         	STA		R_Time_Year
     7 00:C13C: 53 01         	LDA		#1
     8 00:C13E: 7F AB         	STA		R_Time_Day
     9 00:C140: 7F AC         	STA		R_Time_Month
    10                        	; LDA		#4
    11                        	; STA		R_Mode
    12                        	; JSR		L_Auto_Counter_Week
    13                        
    14 00:C142: 09            	RTS
    15                        ;======================================================
    16                        L_Dis_All_DisRam_Prog:
    17 00:C143: 53 FF         	LDA		#$FF
    18                        L_All_DisRam:
    19 00:C145: 5E 00         	LDX		#0
    20                        L_Loop_DisplayRam:
    21 00:C147: 6F 00 18      	STA		LCD_RamAddr,X
    22 00:C14A: 0B            	INX
    23 00:C14B: 57 1E         	CPX		#D_LCD_RAM
    24 00:C14D: 10 F8         	BCC		L_Loop_DisplayRam    ;C=0是跳转
    25 00:C14F: 09            	RTS
    26                        ;----------------------------------------------------
    27                        L_Clr_All_DisRam_Prog:
    28 00:C150: 53 00         	LDA		#0
    29 00:C152: 17 F1         	BRA		L_All_DisRam
    30                        
    31                        L_Scankey_INIT:
    32 00:C154: 53 FD         	LDA		#11111101B;
    33 00:C156: 7F 04         	STA		P_PA_IO;PA0输出,其余输入
    34 00:C158: 53 8D         	LDA		#10001101B
    35 00:C15A: 7F 01         	STA		P_PA	;其他全部下拉
    36 00:C15C: 53 7C         	LDA		#01111100B
    37 00:C15E: 7F 02         	STA		P_PA_WAKE;	将PA做唤醒
    38 00:C160: 53 00         	LDA		#0
    39 00:C162: 7F 08         	STA		P_PC_IO
    40 00:C164: 7F 07         	STA		P_PC
    41 00:C166: 09            	RTS
    42                        
    43                        L_Judgement_Scankey_Prog:
    44                        	; LDA		#11111101B;
    45                        	; STA		P_PA_IO;PA0输出,其余输入
    46 00:C167: 53 8D         	LDA		#10001101B
    47 00:C169: 7F 01         	STA		P_PA	;其他全部下拉
    48 00:C16B: 53 00         	LDA		#0
    49 00:C16D: 7F 07         	STA		P_PC;PC口输出0
    50 00:C16F: 09            	RTS
    51                        L_PA_Intput_Low_Prog:
    52 00:C170: 53 FD         	LDA		#11111101B
    53 00:C172: 7F 01         	STA		P_PA
    54 00:C174: 09            	RTS
    55                        L_PC0_Output_High_Prog:
    56 00:C175: 53 01         	LDA		#01H
    57 00:C177: 7F 07         	STA		P_PC
    58 00:C179: 09            	RTS
    59                        L_PC1_Output_High_Prog:
    60 00:C17A: 53 02         	LDA		#02H
    61 00:C17C: 7F 07         	STA		P_PC
    62 00:C17E: 09            	RTS
    63                        L_PC2_Output_High_Prog:
    64 00:C17F: 53 04         	LDA		#04H
    65 00:C181: 7F 07         	STA		P_PC
    66 00:C183: 09            	RTS
    67                        L_PC3_Output_High_Prog:
    68 00:C184: 53 08         	LDA		#08H
    69 00:C186: 7F 07         	STA		P_PC
    70 00:C188: 09            	RTS
    71                        
    72                        L_PC4_Output_High_Prog:
    73 00:C189: 53 10         	LDA		#10H
    74 00:C18B: 7F 07         	STA		P_PC
    75 00:C18D: 09            	RTS
    76                        
    77                        L_PC5_Output_High_Prog:
    78 00:C18E: 53 20         	LDA		#20H
    79 00:C190: 7F 07         	STA		P_PC
    80 00:C192: 09            	RTS
    81                        
    82                        ; L_PA257_Input_Low:
    83                        ; 	LDA		#10101101B
    84                        ; 	STA		P_PA	;其他全部下拉
    85                        ; 	RTS
    86                        ; L_PA257_Input_High:
    87                        ; 	LDA		#00000001B
    88                        ; 	STA		P_PA
    89                        ; 	RTS
    90                        L_Scankey_Effictive_Init:
    91 00:C193: 53 F1         	LDA		#11110001B;
    92 00:C195: 7F 01         	STA		P_PA
    93 00:C197: 53 00         	LDA		#0
    94 00:C199: 7F 07         	STA		P_PC
    95 00:C19B: 09            	RTS
    95                        
   164                        
   165                        ; .INCLUDE	Key\ScanKey.ASM
   166                        ; .INCLUDE	Key\Scankey_First_Press.asm
   167                        ; .INCLUDE	Key\Scankey_First_Set_Mode.asm
   168                        ; .INCLUDE	Key\Scankey_First_Press_Judgment.asm
   169                        ; .INCLUDE	Key\Scankey_Normal.asm
   170                        ; .INCLUDE	Key\ScanKey_Function_Time.ASM
   171                        ; .INCLUDE	Key\ScanKey_Function_usually.asm
   172                        ;
   173                        ;
   174                        ;
   175                        ; .INCLUDE	Display\Disp.asm
   176                        ; .INCLUDE	Display\Lcdtab.asm
   177                        ; .INCLUDE	Display\Display.asm
   178                        ; .INCLUDE	Display\Display_Time.asm
   179                        ; .INCLUDE	Display\Display_Alarm.asm
   180                        ; .INCLUDE	Display\Display_Symbol.asm
   181                        ; .INCLUDE	Display\Display_Normal.asm
   182                        .INCLUDE	Display\Tool.asm
     1                        L_A_HexToHexD:
     2 00:C19C: 7F D0         	STA		P_Temp								; 将十进制输入保存到 P_Temp
     3 00:C19E: 53 00         	LDA		#0									; 初始化高位寄存器
     4 00:C1A0: 7F D1         	STA		P_Temp+1							; 高位清零
     5 00:C1A2: 7F D2         	STA		P_Temp+2							; 低位清零
     6                        
     7                        L_DecToHex_Loop:
     8 00:C1A4: 73 D0         	LDA		P_Temp								; 读取当前十进制值
     9 00:C1A6: 56 0A         	CMP		#10
    10 00:C1A8: 10 09         	BCC		L_DecToHex_End						; 如果小于16，则跳到结束
    11                        
    12 00:C1AA: 00            	SEC											; 启用借位
    13 00:C1AB: 55 0A         	SBC		#10									; 减去16
    14 00:C1AD: 7F D0         	STA		P_Temp								; 更新十进制值
    15 00:C1AF: 78 D1         	INC		P_Temp+1							; 高位+1，累加十六进制的十位
    16                        
    17 00:C1B1: 17 F1         	BRA		L_DecToHex_Loop						; 重复循环
    18                        
    19                        L_DecToHex_End:
    20 00:C1B3: 73 D0         	LDA		P_Temp								; 最后剩余的值是低位
    21 00:C1B5: 7F D2         	STA		P_Temp+2							; 存入低位
    22                        
    23 00:C1B7: 73 D1         	LDA		P_Temp+1							; 将高位放入A寄存器准备结果组合
    24 00:C1B9: 04            	CLC
    25 00:C1BA: 18            	ROL
    26 00:C1BB: 18            	ROL
    27 00:C1BC: 18            	ROL
    28 00:C1BD: 18            	ROL											; 左移4次，完成乘16
    29 00:C1BE: 04            	CLC
    30 00:C1BF: 74 D2         	ADC		P_Temp+2							; 加上低位值
    31                        
    32 00:C1C1: 09            	RTS
    33                        
    34                        ;======================================================================
    35                        ; L_A_HexDToHex:
    36                        ; 	STA		P_Temp								; 将十六进制输入保存到 P_Temp
    37                        ; 	LDA		#0									; 初始化高位寄存器
    38                        ; 	STA		P_Temp+1							; 高位清零
    39                        ; 	STA		P_Temp+2							; 低位清零
    40                        
    41                        ; 	LDA		P_Temp
    42                        ; 	AND		#0FH
    43                        ; 	STA		P_Temp+2
    44                        ; 	LDA		P_Temp
    45                        ; 	AND		#F0H
    46                        ; 	CLC
    47                        ; 	ROR
    48                        ; 	ROR
    49                        ; 	ROR
    50                        ; 	ROR
    51                        ; 	STA		P_Temp
    52                        ; L_A_HexDToHex_Loop:
    53                        ; 	CLC
    54                        ; 	LDA		#10
    55                        ; 	ADC		P_Temp+2
    56                        ; 	STA		P_Temp+2
    57                        ; 	DEC		P_Temp
    58                        ; 	LDA		P_Temp
    59                        ; 	BNE		L_A_HexDToHex_Loop
    60                        ; 	LDA		P_Temp+2
    61                        ; 	RTS
    62                        L_DToHx_Prog:		;十进制转十六进制
    63 00:C1C2: 7F D6         	STA		P_Temp+6
    64 00:C1C4: 51 F0         	AND		#$F0
    65 00:C1C6: 7F D7         	STA		P_Temp+7
    66 00:C1C8: 53 0F         	LDA		#$0F
    67 00:C1CA: 71 D6         	AND		P_Temp+6
    68 00:C1CC: 7F D6         	STA		P_Temp+6
    69                        L_Loop_DToHx_Prog:
    70 00:C1CE: 73 D7         	LDA		P_Temp+7
    71 00:C1D0: 13 0E         	BEQ		L_End_DToHx_Prog    ;Z=1跳转
    72 00:C1D2: 00            	SEC
    73 00:C1D3: 55 10         	SBC		#$10
    74 00:C1D5: 7F D7         	STA		P_Temp+7
    75 00:C1D7: 04            	CLC
    76 00:C1D8: 53 0A         	LDA		#$0A
    77 00:C1DA: 74 D6         	ADC		P_Temp+6
    78 00:C1DC: 7F D6         	STA		P_Temp+6
    79 00:C1DE: 17 EE         	BRA		L_Loop_DToHx_Prog          ;无条件跳转
    80                        L_End_DToHx_Prog:
    81 00:C1E0: 73 D6         	LDA		P_Temp+6
    82 00:C1E2: 09            	RTS
    83                        ;===========================================
    84                        
    85                        ; L_12_24_Prog:;12小时和24小时切换
    86                        ; 	STA		P_Temp
    87                        ; 	BBS2	Sys_Flag_B,L_12_24_Prog_5;判断是24小时制跳转退出
    88                        ; 	LDA		P_Temp
    89                        ; 	BEQ		L_12_24_Prog_1;为0是跳转
    90                        ; 	CMP		#11H
    91                        ; 	BEQ		L_12_24_Prog_4
    92                        ; 	BCS		L_12_24_Prog_3;比12大时跳转
    93                        ; L_12_24_Prog_4:
    94                        ; 	JSR		L_Dis_lcd_AM_Prog
    95                        ; 	JSR		L_Clr_lcd_PM_Prog
    96                        ; 	LDA		P_Temp
    97                        ; L_12_24_Prog_OUT:
    98                        ; 	RTS
    99                        ; L_12_24_Prog_1:;0点
   100                        ; 	JSR		L_Dis_lcd_AM_Prog
   101                        ; 	JSR		L_Clr_lcd_PM_Prog
   102                        ; 	LDA		#12H
   103                        ; 	RTS
   104                        ; L_12_24_Prog_3:
   105                        ; 	JSR		L_Clr_lcd_AM_Prog
   106                        ; 	JSR		L_Dis_lcd_PM_Prog
   107                        ; 	LDA		P_Temp
   108                        ; 	CMP		#12H
   109                        ; 	BEQ		L_12_24_Prog_OUT
   110                        ; 	SEC
   111                        ; 	SBC		#12H
   112                        ; 	RTS
   113                        ; L_12_24_Prog_5:
   114                        ; 	JSR		L_Clr_lcd_AM_Prog
   115                        ; 	JSR		L_Clr_lcd_PM_Prog
   116                        ; 	LDA		P_Temp
   117                        ; 	RTS
   118                        
   118                        
   183                        ;
   184                        ;
   185                        ;
   186                        ;
   187                        ;
   188                        ;
   189                        ; .INCLUDE	Half_s\Half.asm
   190                        .INCLUDE	Half_s\Clock.asm
     1                        ;=========================
     2                        L_Update_Time_Prog:
     3 00:C1E3: 15 03 C2      	JSR		L_Update_Time_Sec_Prog
     4                        
     5                        
     6 00:C1E6: 10 1A         	BCC		L_End_Update_Time_Prog
     7                        
     8                        
     9 00:C1E8: 15 08 C2      	JSR		L_Update_Time_Min_Prog
    10                        
    11                        
    12 00:C1EB: 10 15         	BCC		L_End_Update_Time_Prog
    13                        
    14                        
    15 00:C1ED: 15 0D C2      	JSR		L_Update_Time_Hr_Prog
    16                        
    17                        
    18 00:C1F0: 10 10         	BCC		L_End_Update_Time_Prog
    19                        
    20 00:C1F2: 15 14 C2      	JSR		L_Update_Time_Day_Prog
    21                        
    22                        
    23 00:C1F5: 10 08         	BCC		L_End_Update_Date_Prog
    24                        
    25 00:C1F7: 15 1C C2      	JSR		L_Update_Time_Month_Prog
    26                        
    27                        
    28 00:C1FA: 10 03         	BCC		L_End_Update_Date_Prog
    29                        
    30 00:C1FC: 15 23 C2      	JSR		L_Update_Time_Year_Prog
    31                        
    32                        
    33                        L_End_Update_Date_Prog:
    34 00:C1FF: 15 E3 C2      	JSR		L_Auto_Counter_Week
    35                        L_End_Update_Time_Prog:
    36 00:C202: 09            	RTS
    37                        
    38                        ;===================================
    39                        ;-----时间的增加---------------------
    40                        ;===================================
    41                        ;----------------------------------
    42                        L_Update_Time_Sec_Prog:
    43 00:C203: 5E 00         	LDX 	#(R_Time_Sec-Time_Str_Addr)
    44 00:C205: 16 2E C2      	JMP		L_Inc_To_60_Prog
    45                        L_Update_Time_Min_Prog:;时间分钟更新加
    46 00:C208: 5E 01         	LDX		#(R_Time_Min-Time_Str_Addr)
    47 00:C20A: 16 2E C2      	JMP		L_Inc_To_60_Prog
    48                        ;---------------------------
    49                        L_Update_Time_Hr_Prog:;时间小时更新加
    50 00:C20D: 5E 02         	LDX		#(R_Time_Hr-Time_Str_Addr)
    51 00:C20F: 53 23         	LDA		#23H
    52 00:C211: 16 30 C2      	JMP		L_Inc_To_Any_Count_Prog
    53                        ;----------------------------------
    54                        L_Update_Time_Day_Prog:;时间天数更新加
    55 00:C214: 15 92 C2      	JSR		L_Check_MaxDay_Prog
    56 00:C217: 5E 03         	LDX		#(R_Time_Day-Time_Str_Addr)
    57 00:C219: 16 4D C2      	JMP		L_Inc_To_Any_Count_Prog_To_1
    58                        ;-------------------------------------
    59                        L_Update_Time_Month_Prog:;时间月更新加
    60 00:C21C: 5E 04         	LDX		#(R_Time_Month-Time_Str_Addr)
    61 00:C21E: 53 12         	LDA		#12H
    62 00:C220: 16 4D C2      	JMP		L_Inc_To_Any_Count_Prog_To_1
    63                        
    64                        ;----------------------------------
    65                        L_Update_Time_Year_Prog:;时间年更新加
    66 00:C223: 5E 05         	LDX		#(R_Time_Year-Time_Str_Addr)
    67 00:C225: 53 99         	LDA		#99H
    68 00:C227: 15 30 C2      	JSR		L_Inc_To_Any_Count_Prog
    69 00:C22A: 15 A7 C2      	JSR		L_Judge_MaxDay_Prog
    70 00:C22D: 09            	RTS
    71                        ;================================
    72                        L_Inc_To_60_Prog:;将数从0加到59
    73 00:C22E: 53 59         	LDA		#59H
    74                        L_Inc_To_Any_Count_Prog:
    75 00:C230: 02            	SED
    76 00:C231: 00            	SEC
    77 00:C232: 65 28 18      	SBC		Time_Addr,X
    78 00:C235: 13 0E         	BEQ		L_Inc_Over_Prog
    79 00:C237: 10 0C         	BCC		L_Inc_Over_Prog
    80 00:C239: 04            	CLC
    81 00:C23A: 63 28 18      	LDA		Time_Addr,X
    82 00:C23D: 54 01         	ADC		#1
    83 00:C23F: 6F 28 18      	STA		Time_Addr,X
    84 00:C242: 04            	CLC
    85 00:C243: 06            	CLD
    86 00:C244: 09            	RTS
    87                        L_Inc_Over_Prog:
    88 00:C245: 53 00         	LDA		#0
    89 00:C247: 6F 28 18      	STA		Time_Addr,X
    90 00:C24A: 06            	CLD
    91 00:C24B: 00            	SEC
    92                        L_End_Inc_To_60_Prog:
    93 00:C24C: 09            	RTS
    94                        
    95                        L_Inc_To_Any_Count_Prog_To_1:;将数从1加到59
    96 00:C24D: 02            	SED
    97 00:C24E: 00            	SEC
    98 00:C24F: 65 28 18      	SBC		Time_Addr,X
    99 00:C252: 13 0D         	BEQ		L_Inc_Over_Prog_To_1
   100 00:C254: 10 0B         	BCC		L_Inc_Over_Prog_To_1
   101 00:C256: 04            	CLC
   102 00:C257: 63 28 18      	LDA		Time_Addr,X
   103 00:C25A: 54 01         	ADC		#1
   104 00:C25C: 6F 28 18      	STA		Time_Addr,X
   105 00:C25F: 06            	CLD
   106 00:C260: 09            	RTS
   107                        L_Inc_Over_Prog_To_1:
   108 00:C261: 53 01         	LDA		#1
   109 00:C263: 6F 28 18      	STA		Time_Addr,X
   110 00:C266: 06            	CLD
   111 00:C267: 09            	RTS
   112                        ;=======================================================
   113                        L_Dec_To_60_Prog:
   114 00:C268: 53 59         	LDA		#59H
   115                        L_Dec_To_0_Prog:
   116 00:C26A: 7F D0         	STA		P_Temp
   117 00:C26C: 53 00         	LDA		#0
   118                        L_Dec_To_Anycount_Prog:
   119 00:C26E: 02            	SED
   120 00:C26F: 00            	SEC
   121 00:C270: 65 28 18          SBC     Time_Addr,X
   122 00:C273: 13 0E         	BEQ		L_Dec_Over_Prog
   123 00:C275: 11 0C         	BCS		L_Dec_Over_Prog
   124                        
   125 00:C277: 00            	SEC
   126 00:C278: 63 28 18      	LDA		Time_Addr,X
   127 00:C27B: 55 01         	SBC		#1
   128 00:C27D: 6F 28 18      	STA		Time_Addr,X
   129 00:C280: 06            	CLD
   130 00:C281: 00            	SEC
   131 00:C282: 09            	RTS
   132                        L_Dec_Over_Prog:
   133 00:C283: 73 D0         	LDA		P_Temp
   134 00:C285: 6F 28 18      	STA		Time_Addr,X
   135 00:C288: 06            	CLD
   136 00:C289: 04            	CLC
   137 00:C28A: 09            	RTS
   138                        L_Dec_To_1_Prog:
   139 00:C28B: 7F D0             STA     P_Temp
   140 00:C28D: 02            	SED
   141 00:C28E: 53 01             LDA     #1
   142 00:C290: 17 DC             BRA     L_Dec_To_Anycount_Prog
   143                        ;===============================================
   144                        ;=====================================
   145                        ;-------------------------------------
   146                        ;=====================================
   147                        L_Check_MaxDay_Prog:;检查每月的最大天数
   148 00:C292: 73 AC         	LDA		R_Time_Month
   149 00:C294: 15 C2 C1      	JSR		L_DToHx_Prog
   150 00:C297: 07            	DEC
   151 00:C298: 1B            	TAX
   152                        L_Check_MaxDay_Prog_Alarm_clock_Prog:
   153 00:C299: 73 A0         	LDA		Sys_Flag_B
   154 00:C29B: 51 08         	AND		#08H
   155 00:C29D: 12 04         	BNE		L_Check_LeapYear_MaxDay_Prog
   156 00:C29F: 63 41 C3      	LDA		T_NoLeapYear_Month,X
   157 00:C2A2: 09            	RTS
   158                        L_Check_LeapYear_MaxDay_Prog:
   159 00:C2A3: 63 35 C3      	LDA		T_LeapYear_Month,X
   160 00:C2A6: 09            	RTS
   161                        ;==============================
   162                        ;------------------------------
   163                        ;==============================
   164                        L_Judge_MaxDay_Prog:;如果最大天数最大超界限，则给予月份的最大天数
   165 00:C2A7: 15 92 C2      	JSR		L_Check_MaxDay_Prog
   166 00:C2AA: 7F D5         	STA		P_Temp+5
   167 00:C2AC: 76 AB         	CMP		R_Time_Day
   168 00:C2AE: 11 04         	BCS		L_Judge_MaxDay_Prog_RTS
   169 00:C2B0: 73 D5         	LDA		P_Temp+5
   170 00:C2B2: 7F AB         	STA		R_Time_Day
   171                        L_Judge_MaxDay_Prog_RTS:
   172 00:C2B4: 09            	RTS
   173                        ;==================================
   174                        L_Check_LeapYear_Prog:;检查是否是闰年
   175 00:C2B5: 73 AD         	LDA		R_Time_Year
   176 00:C2B7: 15 C2 C1      	JSR		L_DToHx_Prog
   177 00:C2BA: 7F D0         	STA		P_Temp
   178 00:C2BC: 04            	CLC
   179 00:C2BD: 7B D0         	ROR		P_Temp
   180 00:C2BF: 7E D0         	LDX		P_Temp
   181 00:C2C1: 63 4D C3      	LDA		T_LeapYear_Week,X
   182 00:C2C4: 7F D0         	STA		P_Temp
   183 00:C2C6: 73 AD         	LDA		R_Time_Year
   184 00:C2C8: 51 01         	AND		#01H
   185 00:C2CA: 13 0C         	BEQ		L_Counter_LeapYear;建表从2000年开始处于低四位，高四位，需要右移四位
   186 00:C2CC: 04            	CLC
   187 00:C2CD: 7B D0         	ROR		P_Temp
   188 00:C2CF: 04            	CLC
   189 00:C2D0: 7B D0         	ROR		P_Temp
   190 00:C2D2: 04            	CLC
   191 00:C2D3: 7B D0         	ROR		P_Temp
   192 00:C2D5: 04            	CLC
   193 00:C2D6: 7B D0         	ROR		P_Temp
   194                        L_Counter_LeapYear:
   195 00:C2D8: 23 A0         	RMB3	Sys_Flag_B
   196 00:C2DA: 53 08         	LDA		#08H
   197 00:C2DC: 71 D0         	AND		P_Temp
   198 00:C2DE: 70 A0         	ORA		Sys_Flag_B
   199 00:C2E0: 7F A0         	STA		Sys_Flag_B;第四位为1则为闰年，否则·为平年
   200 00:C2E2: 09            	RTS
   201                        ;===========================================
   202                        ;P_Temp,0-3bit存储对应年分的1月1日星期几，4bit存储平闰年
   203                        ;P_Temp+1存储前几个月的天数除以7的余数
   204                        L_Auto_Counter_Week:
   205 00:C2E3: 15 B5 C2      	JSR		L_Check_LeapYear_Prog
   206 00:C2E6: 15 A7 C2      	JSR		L_Judge_MaxDay_Prog
   207 00:C2E9: 73 AC         	LDA		R_Time_Month
   208 00:C2EB: 15 C2 C1      	JSR		L_DToHx_Prog
   209 00:C2EE: 1B            	TAX
   210 00:C2EF: 63 7F C3      	LDA		T_Month_Week,X
   211 00:C2F2: 7F D1         	STA		P_Temp+1
   212 00:C2F4: 73 A0         	LDA		Sys_Flag_B
   213 00:C2F6: 51 08         	AND		#08H
   214 00:C2F8: 13 0C         	BEQ		L_Counter_Week_2;非闰年跳转，非闰年需要将右移四位
   215 00:C2FA: 04            	CLC
   216 00:C2FB: 7B D1         	ROR		P_Temp+1
   217 00:C2FD: 04            	CLC
   218 00:C2FE: 7B D1         	ROR		P_Temp+1
   219 00:C300: 04            	CLC
   220 00:C301: 7B D1         	ROR		P_Temp+1
   221 00:C303: 04            	CLC
   222 00:C304: 7B D1         	ROR		P_Temp+1
   223                        L_Counter_Week_2:;十六进制运算
   224 00:C306: 53 0F         	LDA		#$0F
   225 00:C308: 71 D1         	AND		P_Temp+1;保留低四位多余的天数
   226 00:C30A: 7F D1         	STA		P_Temp+1
   227 00:C30C: 53 07         	LDA		#7
   228 00:C30E: 71 D0         	AND		P_Temp;保留低三位位每年一月一号星期几
   229 00:C310: 02            	SED
   230 00:C311: 04            	CLC
   231 00:C312: 74 D1         	ADC		P_Temp+1;每年一月一日星期几加上日期再加上多余的天数
   232 00:C314: 74 AB         	ADC		R_Time_Day
   233 00:C316: 7F D0         	STA		P_Temp
   234                        L_Loop_WeekSub_7:
   235 00:C318: 00            	SEC
   236 00:C319: 73 D0         	LDA		P_Temp
   237 00:C31B: 55 07         	SBC		#7
   238 00:C31D: 10 04         	BCC		L_End_Counter_Week
   239 00:C31F: 7F D0         	STA		P_Temp
   240 00:C321: 17 F5         	BRA		L_Loop_WeekSub_7
   241                        L_End_Counter_Week:
   242 00:C323: 73 D0         	LDA		P_Temp
   243 00:C325: 13 04         	BEQ		L_SetWeek_Sat
   244 00:C327: 79 D0         	DEC		P_Temp
   245 00:C329: 17 04         	BRA		L_Exit_Counter_Week
   246                        L_SetWeek_Sat:
   247 00:C32B: 53 06         	LDA		#6
   248 00:C32D: 7F D0         	STA		P_Temp
   249                        L_Exit_Counter_Week:
   250 00:C32F: 73 D0         	LDA		P_Temp
   251 00:C331: 7F AE         	STA		R_Time_Week
   252 00:C333: 06            	CLD
   253 00:C334: 09            	RTS
   254                        ;===============================================
   255                        ;-------------------------------------------
   256                        T_LeapYear_Month:
   257 00:C335: 31            	DB		31H
   258 00:C336: 29            	DB		29H
   259 00:C337: 31            	DB		31H
   260 00:C338: 30            	DB		30H
   261 00:C339: 31            	DB		31H
   262 00:C33A: 30            	DB		30H
   263 00:C33B: 31            	DB		31H
   264 00:C33C: 31            	DB		31H
   265 00:C33D: 30            	DB		30H
   266 00:C33E: 31            	DB		31H
   267 00:C33F: 30            	DB		30H
   268 00:C340: 31            	DB		31H
   269                        T_NoLeapYear_Month:
   270 00:C341: 31            	DB		31H
   271 00:C342: 28            	DB		28H
   272 00:C343: 31            	DB		31H
   273 00:C344: 30            	DB		30H
   274 00:C345: 31            	DB		31H
   275 00:C346: 30            	DB		30H
   276 00:C347: 31            	DB		31H
   277 00:C348: 31            	DB		31H
   278 00:C349: 30            	DB		30H
   279 00:C34A: 31            	DB		31H
   280 00:C34B: 30            	DB		30H
   281 00:C34C: 31            	DB		31H
   282                        T_LeapYear_Week:
   283 00:C34D: 1E            	DB		1EH   ;2001,2000 ;E="1110"代表2000年1月1日是星期六(110),是闰年(1),
   284 00:C34E: 32            	DB		32H   ;2003,2002	;000星期天
   285 00:C34F: 6C            	DB		6CH   ;2005,2004	;001星期一
   286 00:C350: 10            	DB		10H   ;2007,2006	;010星期二
   287 00:C351: 4A            	DB		4AH   ;2009,2008	;011星期三
   288 00:C352: 65            	DB		65H   ;2011,2010	;100星期四
   289 00:C353: 28            	DB		28H   ;2013,2012	;101星期五
   290 00:C354: 43            	DB		43H   ;2015,2014	;110星期六
   291 00:C355: 0D            	DB		0DH   ;2017,2016
   292 00:C356: 21            	DB		21H   ;2019,2018
   293 00:C357: 5B            	DB		5BH   ;2021,2020
   294 00:C358: 06            	DB		06H   ;2023,2022
   295 00:C359: 39            	DB		39H   ;2025,2024
   296 00:C35A: 54            	DB		54H   ;2027,2026
   297 00:C35B: 1E            	DB		1EH   ;2029,2028
   298 00:C35C: 32            	DB		32H   ;2031,2030
   299 00:C35D: 6C            	DB		6CH   ;2033,2032
   300 00:C35E: 10            	DB		10H   ;2035,2034
   301 00:C35F: 4A            	DB		4AH   ;2037,2036
   302 00:C360: 65            	DB		65H   ;2039,2038
   303 00:C361: 28            	DB		28H   ;2041,2040
   304 00:C362: 43            	DB		43H   ;2043,2042
   305 00:C363: 0D            	DB		0DH   ;2045,2044
   306 00:C364: 21            	DB		21H   ;2047,2046
   307 00:C365: 5B            	DB		5BH   ;2049,2048
   308 00:C366: 06            	DB		06H   ;2051,2050
   309 00:C367: 39            	DB		39H   ;2053,2052
   310 00:C368: 54            	DB		54H   ;2055,2054
   311 00:C369: 1E            	DB		1EH   ;2057,2056
   312 00:C36A: 32            	DB		32H   ;2059,2058
   313 00:C36B: 6C            	DB		6CH   ;2061,2060
   314 00:C36C: 10            	DB		10H   ;2063,2062
   315 00:C36D: 4A            	DB		4AH   ;2065,2064
   316 00:C36E: 65            	DB		65H   ;2067,2066
   317 00:C36F: 28            	DB		28H   ;2069,2068
   318 00:C370: 43            	DB		43H   ;2071,2070
   319 00:C371: 0D            	DB		0DH   ;2073,2072
   320 00:C372: 21            	DB		21H   ;2075,2074
   321 00:C373: 5B            	DB		5BH   ;2077,2076
   322 00:C374: 06            	DB		06H   ;2079,2078
   323 00:C375: 39            	DB		39H   ;2081,2080
   324 00:C376: 54            	DB		54H   ;2083,2082
   325 00:C377: 1E            	DB		1EH   ;2085,2084
   326 00:C378: 32            	DB		32H   ;2087,2086
   327 00:C379: 6C            	DB		6CH   ;2089,2088
   328 00:C37A: 10            	DB		10H   ;2091,2090
   329 00:C37B: 4A            	DB		4AH   ;2093,2092
   330 00:C37C: 65            	DB		65H   ;2095,2094
   331 00:C37D: 28            	DB		28H   ;2097,2096
   332 00:C37E: 43            	DB		43H   ;2099,2098
   333                        ;--------------------------------
   334                        T_Month_Week:
   335 00:C37F: 00            	DB		00H
   336 00:C380: 00            	DB		00H   ;JANUARY		从1月1日开始，所以1月为0
   337 00:C381: 33            	DB		33H   ;FABRUARY 	低4Bit为非闰年，高4Bit为闰年,
   338 00:C382: 43            	DB		43H   ;MARCH		每4bit数字是前几个月全部的天数减去7的倍数的剩余天数
   339 00:C383: 76            	DB		76H   ;APRIL
   340 00:C384: 21            	DB		21H   ;MAY
   341 00:C385: 54            	DB		54H   ;JUNE
   342 00:C386: 76            	DB		76H   ;JULY
   343 00:C387: 32            	DB		32H   ;AUGUST
   344 00:C388: 65            	DB		65H   ;SEPTEMBER
   345 00:C389: 10            	DB		10H   ;OCTOBER
   346 00:C38A: 43            	DB		43H   ;NOVEMBER
   347 00:C38B: 65            	DB		65H   ;DECEMBER
   347                        
   191                        ; .INCLUDE	Half_s\Alarm_Clock.asm
   192                        ; .INCLUDE	Half_s\Common.asm
   193                        ; .INCLUDE	Half_s\Flash.asm
   194                        ;
   195                        ; .INCLUDE	Sound\Beep.asm
   196                        
   197                        .INCLUDE	Delay.asm
     1                        ;============================================================
     2                        L_ScanKey_Delay_Prog:    ;延时功能
     3 00:C38C: 53 E0         	LDA		#$E0
     4 00:C38E: 7F D0         	STA		P_Temp
     5                        L_Loop_ScanKey_Delay:
     6 00:C390: 78 D0         	INC		P_Temp
     7 00:C392: 73 D0         	LDA		P_Temp
     8 00:C394: 12 FA         	BNE		L_Loop_ScanKey_Delay
     9 00:C396: 09            	RTS
    10                        L_Beep_1s:    ;响一声
    11 00:C397: 35 A0 07      	BBR5	Sys_Flag_B,L_Beep_1s_RTS
    12                        L_Beep_1s_Usually:
    13 00:C39A: 53 01         	LDA		#1
    14 00:C39C: 4F 83 18      	STA		R_Voice_Unit
    15                        	EN_LCD_IRQ
+   15 00:C39F: 2E 0E          SMB6 IER
    16                        L_Beep_1s_RTS
    17 00:C3A1: 09            	RTS
    17                        
   198                        
   199                        ;--------------------------------------------------------
   200                        ;***********************************************************************
   201 00:C3A2: FF FF FF FF   	.BLKB	$FFFF-$,$FF
   201 00:C3A2: FF FF FF FF   
   201 00:C3A2: FF FF FF FF   
   202                        
   203                        	.ORG	0FFF8H
   204                        
   205 00:FFF8: D5            	DB		11010101B	;
   206                        ; bit0 	=0
   207                        ; bit1	=0
   208                        ; bit2 	=0当PA7做复位时，只能写1低电平有效，高电平有效烧录会报错
   209                        ; bit3	=0PA口做输入下拉和输入上拉，1PA口做输入下拉和三态
   210                        ; bit4 	=0
   211                        ; bit5 	=0
   212                        ; bit6	=0VDD=1.5V,1 VDD=3V
   213                        ; bit7	=0做复位，1做PA7口
   214 00:FFF9: FF            	DB		11111111B	;
   215                        
   216                        ;***********************************************************************
   217                        	.ORG	0FFFCH
   218 00:FFFC: 00 C0         	DW		V_RESET
   219 00:FFFE: F1 C0         	DW		V_IRQ
   220                        
   221                        	.ENDS
   222                        	.END

 --------------------
      Warnings:0
      Errors  :0
